target datalayout = "e-m:e-p270:32:32-p271:32:32-p272:64:64-i64:64-i128:128-f80:128-n8:16:32:64-S128"
target triple = "x86_64-pc-linux-gnu"

%struct.Ivy_Store_t_ = type { i32, i32, i32, i32, [256 x %struct.Ivy_Cut_t_] }
%struct.Ivy_Cut_t_ = type { i32, i16, i16, [6 x i32], i32 }

; Function Attrs: inlinehint nounwind uwtable
define internal i32 @Ivy_CutCheckDominance(ptr noundef %0, ptr noundef %1) #2 {
  %3 = alloca i32, align 4
  %4 = alloca ptr, align 8
  %5 = alloca ptr, align 8
  %6 = alloca i32, align 4
  %7 = alloca i32, align 4
  %8 = alloca i32, align 4
  store ptr %0, ptr %4, align 8, !tbaa !47
  store ptr %1, ptr %5, align 8, !tbaa !47
  call void @llvm.lifetime.start.p0(i64 4, ptr %6) #10
  call void @llvm.lifetime.start.p0(i64 4, ptr %7) #10
  store i32 0, ptr %6, align 4, !tbaa !8
  br label %9

9:                                                ; preds = %52, %2
  %10 = load i32, ptr %6, align 4, !tbaa !8
  %11 = load ptr, ptr %4, align 8, !tbaa !47
  %12 = getelementptr inbounds nuw %struct.Ivy_Cut_t_, ptr %11, i32 0, i32 1
  %13 = load i16, ptr %12, align 4, !tbaa !49
  %14 = sext i16 %13 to i32
  %15 = icmp slt i32 %10, %14
  br i1 %15, label %16, label %55

16:                                               ; preds = %9
  store i32 0, ptr %7, align 4, !tbaa !8
  br label %17

17:                                               ; preds = %40, %16
  %18 = load i32, ptr %7, align 4, !tbaa !8
  %19 = load ptr, ptr %5, align 8, !tbaa !47
  %20 = getelementptr inbounds nuw %struct.Ivy_Cut_t_, ptr %19, i32 0, i32 1
  %21 = load i16, ptr %20, align 4, !tbaa !49
  %22 = sext i16 %21 to i32
  %23 = icmp slt i32 %18, %22
  br i1 %23, label %24, label %43

24:                                               ; preds = %17
  %25 = load ptr, ptr %4, align 8, !tbaa !47
  %26 = getelementptr inbounds nuw %struct.Ivy_Cut_t_, ptr %25, i32 0, i32 3
  %27 = load i32, ptr %6, align 4, !tbaa !8
  %28 = sext i32 %27 to i64
  %29 = getelementptr inbounds [6 x i32], ptr %26, i64 0, i64 %28
  %30 = load i32, ptr %29, align 4, !tbaa !8
  %31 = load ptr, ptr %5, align 8, !tbaa !47
  %32 = getelementptr inbounds nuw %struct.Ivy_Cut_t_, ptr %31, i32 0, i32 3
  %33 = load i32, ptr %7, align 4, !tbaa !8
  %34 = sext i32 %33 to i64
  %35 = getelementptr inbounds [6 x i32], ptr %32, i64 0, i64 %34
  %36 = load i32, ptr %35, align 4, !tbaa !8
  %37 = icmp eq i32 %30, %36
  br i1 %37, label %38, label %39

38:                                               ; preds = %24
  br label %43

39:                                               ; preds = %24
  br label %40

40:                                               ; preds = %39
  %41 = load i32, ptr %7, align 4, !tbaa !8
  %42 = add nsw i32 %41, 1
  store i32 %42, ptr %7, align 4, !tbaa !8
  br label %17, !llvm.loop !87

43:                                               ; preds = %38, %17
  %44 = load i32, ptr %7, align 4, !tbaa !8
  %45 = load ptr, ptr %5, align 8, !tbaa !47
  %46 = getelementptr inbounds nuw %struct.Ivy_Cut_t_, ptr %45, i32 0, i32 1
  %47 = load i16, ptr %46, align 4, !tbaa !49
  %48 = sext i16 %47 to i32
  %49 = icmp eq i32 %44, %48
  br i1 %49, label %50, label %51

50:                                               ; preds = %43
  store i32 0, ptr %3, align 4
  store i32 1, ptr %8, align 4
  br label %56

51:                                               ; preds = %43
  br label %52

52:                                               ; preds = %51
  %53 = load i32, ptr %6, align 4, !tbaa !8
  %54 = add nsw i32 %53, 1
  store i32 %54, ptr %6, align 4, !tbaa !8
  br label %9, !llvm.loop !88

55:                                               ; preds = %9
  store i32 1, ptr %3, align 4
  store i32 1, ptr %8, align 4
  br label %56

56:                                               ; preds = %55, %50
  call void @llvm.lifetime.end.p0(i64 4, ptr %7) #10
  call void @llvm.lifetime.end.p0(i64 4, ptr %6) #10
  %57 = load i32, ptr %3, align 4
  ret i32 %57
}

; Function Attrs: nounwind uwtable
define i32 @Ivy_CutFindOrAddFilter(ptr noundef %0, ptr noundef %1) #0 {
  %3 = alloca i32, align 4
  %4 = alloca ptr, align 8
  %5 = alloca ptr, align 8
  %6 = alloca ptr, align 8
  %7 = alloca i32, align 4
  %8 = alloca i32, align 4
  %9 = alloca i32, align 4
  store ptr %0, ptr %4, align 8, !tbaa !42
  store ptr %1, ptr %5, align 8, !tbaa !47
  call void @llvm.lifetime.start.p0(i64 8, ptr %6) #10
  call void @llvm.lifetime.start.p0(i64 4, ptr %7) #10
  call void @llvm.lifetime.start.p0(i64 4, ptr %8) #10
  store i32 0, ptr %7, align 4, !tbaa !8
  br label %10

10:                                               ; preds = %136, %2
  %11 = load i32, ptr %7, align 4, !tbaa !8
  %12 = load ptr, ptr %4, align 8, !tbaa !42
  %13 = getelementptr inbounds nuw %struct.Ivy_Store_t_, ptr %12, i32 0, i32 0
  %14 = load i32, ptr %13, align 4, !tbaa !45
  %15 = icmp slt i32 %11, %14
  br i1 %15, label %16, label %139

16:                                               ; preds = %10
  %17 = load ptr, ptr %4, align 8, !tbaa !42
  %18 = getelementptr inbounds nuw %struct.Ivy_Store_t_, ptr %17, i32 0, i32 4
  %19 = getelementptr inbounds [256 x %struct.Ivy_Cut_t_], ptr %18, i64 0, i64 0
  %20 = load i32, ptr %7, align 4, !tbaa !8
  %21 = sext i32 %20 to i64
  %22 = getelementptr inbounds %struct.Ivy_Cut_t_, ptr %19, i64 %21
  store ptr %22, ptr %6, align 8, !tbaa !47
  %23 = load ptr, ptr %6, align 8, !tbaa !47
  %24 = getelementptr inbounds nuw %struct.Ivy_Cut_t_, ptr %23, i32 0, i32 1
  %25 = load i16, ptr %24, align 4, !tbaa !49
  %26 = sext i16 %25 to i32
  %27 = icmp eq i32 %26, 0
  br i1 %27, label %28, label %29

28:                                               ; preds = %16
  br label %136

29:                                               ; preds = %16
  %30 = load ptr, ptr %6, align 8, !tbaa !47
  %31 = getelementptr inbounds nuw %struct.Ivy_Cut_t_, ptr %30, i32 0, i32 1
  %32 = load i16, ptr %31, align 4, !tbaa !49
  %33 = sext i16 %32 to i32
  %34 = load ptr, ptr %5, align 8, !tbaa !47
  %35 = getelementptr inbounds nuw %struct.Ivy_Cut_t_, ptr %34, i32 0, i32 1
  %36 = load i16, ptr %35, align 4, !tbaa !49
  %37 = sext i16 %36 to i32
  %38 = icmp eq i32 %33, %37
  br i1 %38, label %39, label %84

39:                                               ; preds = %29
  %40 = load ptr, ptr %6, align 8, !tbaa !47
  %41 = getelementptr inbounds nuw %struct.Ivy_Cut_t_, ptr %40, i32 0, i32 4
  %42 = load i32, ptr %41, align 4, !tbaa !82
  %43 = load ptr, ptr %5, align 8, !tbaa !47
  %44 = getelementptr inbounds nuw %struct.Ivy_Cut_t_, ptr %43, i32 0, i32 4
  %45 = load i32, ptr %44, align 4, !tbaa !82
  %46 = icmp eq i32 %42, %45
  br i1 %46, label %47, label %83

47:                                               ; preds = %39
  store i32 0, ptr %8, align 4, !tbaa !8
  br label %48

48:                                               ; preds = %71, %47
  %49 = load i32, ptr %8, align 4, !tbaa !8
  %50 = load ptr, ptr %5, align 8, !tbaa !47
  %51 = getelementptr inbounds nuw %struct.Ivy_Cut_t_, ptr %50, i32 0, i32 1
  %52 = load i16, ptr %51, align 4, !tbaa !49
  %53 = sext i16 %52 to i32
  %54 = icmp slt i32 %49, %53
  br i1 %54, label %55, label %74

55:                                               ; preds = %48
  %56 = load ptr, ptr %6, align 8, !tbaa !47
  %57 = getelementptr inbounds nuw %struct.Ivy_Cut_t_, ptr %56, i32 0, i32 3
  %58 = load i32, ptr %8, align 4, !tbaa !8
  %59 = sext i32 %58 to i64
  %60 = getelementptr inbounds [6 x i32], ptr %57, i64 0, i64 %59
  %61 = load i32, ptr %60, align 4, !tbaa !8
  %62 = load ptr, ptr %5, align 8, !tbaa !47
  %63 = getelementptr inbounds nuw %struct.Ivy_Cut_t_, ptr %62, i32 0, i32 3
  %64 = load i32, ptr %8, align 4, !tbaa !8
  %65 = sext i32 %64 to i64
  %66 = getelementptr inbounds [6 x i32], ptr %63, i64 0, i64 %65
  %67 = load i32, ptr %66, align 4, !tbaa !8
  %68 = icmp ne i32 %61, %67
  br i1 %68, label %69, label %70

69:                                               ; preds = %55
  br label %74

70:                                               ; preds = %55
  br label %71

71:                                               ; preds = %70
  %72 = load i32, ptr %8, align 4, !tbaa !8
  %73 = add nsw i32 %72, 1
  store i32 %73, ptr %8, align 4, !tbaa !8
  br label %48, !llvm.loop !83

74:                                               ; preds = %69, %48
  %75 = load i32, ptr %8, align 4, !tbaa !8
  %76 = load ptr, ptr %5, align 8, !tbaa !47
  %77 = getelementptr inbounds nuw %struct.Ivy_Cut_t_, ptr %76, i32 0, i32 1
  %78 = load i16, ptr %77, align 4, !tbaa !49
  %79 = sext i16 %78 to i32
  %80 = icmp eq i32 %75, %79
  br i1 %80, label %81, label %82

81:                                               ; preds = %74
  store i32 1, ptr %3, align 4
  store i32 1, ptr %9, align 4
  br label %151

82:                                               ; preds = %74
  br label %83

83:                                               ; preds = %82, %39
  br label %136

84:                                               ; preds = %29
  %85 = load ptr, ptr %6, align 8, !tbaa !47
  %86 = getelementptr inbounds nuw %struct.Ivy_Cut_t_, ptr %85, i32 0, i32 1
  %87 = load i16, ptr %86, align 4, !tbaa !49
  %88 = sext i16 %87 to i32
  %89 = load ptr, ptr %5, align 8, !tbaa !47
  %90 = getelementptr inbounds nuw %struct.Ivy_Cut_t_, ptr %89, i32 0, i32 1
  %91 = load i16, ptr %90, align 4, !tbaa !49
  %92 = sext i16 %91 to i32
  %93 = icmp slt i32 %88, %92
  br i1 %93, label %94, label %114

94:                                               ; preds = %84
  %95 = load ptr, ptr %6, align 8, !tbaa !47
  %96 = getelementptr inbounds nuw %struct.Ivy_Cut_t_, ptr %95, i32 0, i32 4
  %97 = load i32, ptr %96, align 4, !tbaa !82
  %98 = load ptr, ptr %5, align 8, !tbaa !47
  %99 = getelementptr inbounds nuw %struct.Ivy_Cut_t_, ptr %98, i32 0, i32 4
  %100 = load i32, ptr %99, align 4, !tbaa !82
  %101 = and i32 %97, %100
  %102 = load ptr, ptr %6, align 8, !tbaa !47
  %103 = getelementptr inbounds nuw %struct.Ivy_Cut_t_, ptr %102, i32 0, i32 4
  %104 = load i32, ptr %103, align 4, !tbaa !82
  %105 = icmp ne i32 %101, %104
  br i1 %105, label %106, label %107

106:                                              ; preds = %94
  br label %136

107:                                              ; preds = %94
  %108 = load ptr, ptr %6, align 8, !tbaa !47
  %109 = load ptr, ptr %5, align 8, !tbaa !47
  %110 = call i32 @Ivy_CutCheckDominance(ptr noundef %108, ptr noundef %109)
  %111 = icmp ne i32 %110, 0
  br i1 %111, label %112, label %113

112:                                              ; preds = %107
  store i32 1, ptr %3, align 4
  store i32 1, ptr %9, align 4
  br label %151

113:                                              ; preds = %107
  br label %136

114:                                              ; preds = %84
  %115 = load ptr, ptr %6, align 8, !tbaa !47
  %116 = getelementptr inbounds nuw %struct.Ivy_Cut_t_, ptr %115, i32 0, i32 4
  %117 = load i32, ptr %116, align 4, !tbaa !82
  %118 = load ptr, ptr %5, align 8, !tbaa !47
  %119 = getelementptr inbounds nuw %struct.Ivy_Cut_t_, ptr %118, i32 0, i32 4
  %120 = load i32, ptr %119, align 4, !tbaa !82
  %121 = and i32 %117, %120
  %122 = load ptr, ptr %5, align 8, !tbaa !47
  %123 = getelementptr inbounds nuw %struct.Ivy_Cut_t_, ptr %122, i32 0, i32 4
  %124 = load i32, ptr %123, align 4, !tbaa !82
  %125 = icmp ne i32 %121, %124
  br i1 %125, label %126, label %127

126:                                              ; preds = %114
  br label %136

127:                                              ; preds = %114
  %128 = load ptr, ptr %5, align 8, !tbaa !47
  %129 = load ptr, ptr %6, align 8, !tbaa !47
  %130 = call i32 @Ivy_CutCheckDominance(ptr noundef %128, ptr noundef %129)
  %131 = icmp ne i32 %130, 0
  br i1 %131, label %132, label %135

132:                                              ; preds = %127
  %133 = load ptr, ptr %6, align 8, !tbaa !47
  %134 = getelementptr inbounds nuw %struct.Ivy_Cut_t_, ptr %133, i32 0, i32 1
  store i16 0, ptr %134, align 4, !tbaa !49
  br label %135

135:                                              ; preds = %132, %127
  br label %136

136:                                              ; preds = %135, %126, %113, %106, %83, %28
  %137 = load i32, ptr %7, align 4, !tbaa !8
  %138 = add nsw i32 %137, 1
  store i32 %138, ptr %7, align 4, !tbaa !8
  br label %10, !llvm.loop !84

139:                                              ; preds = %10
  %140 = load ptr, ptr %4, align 8, !tbaa !42
  %141 = getelementptr inbounds nuw %struct.Ivy_Store_t_, ptr %140, i32 0, i32 4
  %142 = getelementptr inbounds [256 x %struct.Ivy_Cut_t_], ptr %141, i64 0, i64 0
  %143 = load ptr, ptr %4, align 8, !tbaa !42
  %144 = getelementptr inbounds nuw %struct.Ivy_Store_t_, ptr %143, i32 0, i32 0
  %145 = load i32, ptr %144, align 4, !tbaa !45
  %146 = add nsw i32 %145, 1
  store i32 %146, ptr %144, align 4, !tbaa !45
  %147 = sext i32 %145 to i64
  %148 = getelementptr inbounds %struct.Ivy_Cut_t_, ptr %142, i64 %147
  store ptr %148, ptr %6, align 8, !tbaa !47
  %149 = load ptr, ptr %6, align 8, !tbaa !47
  %150 = load ptr, ptr %5, align 8, !tbaa !47
  call void @llvm.memcpy.p0.p0.i64(ptr align 4 %149, ptr align 4 %150, i64 36, i1 false), !tbaa.struct !85
  store i32 0, ptr %3, align 4
  store i32 1, ptr %9, align 4
  br label %151

151:                                              ; preds = %139, %112, %81
  call void @llvm.lifetime.end.p0(i64 4, ptr %8) #10
  call void @llvm.lifetime.end.p0(i64 4, ptr %7) #10
  call void @llvm.lifetime.end.p0(i64 8, ptr %6) #10
  %152 = load i32, ptr %3, align 4
  ret i32 %152
}